
main_dma.o:     file format elf32-littlemips


Disassembly of section .text:

00000000 <main>:
   0:	27bd8010 	addiu	sp,sp,-32752
   4:	afbf7fec 	sw	ra,32748(sp)
   8:	afbe7fe8 	sw	s8,32744(sp)
   c:	34038038 	li	v1,0x8038
  10:	03a3e823 	subu	sp,sp,v1
  14:	03a0f025 	move	s8,sp
  18:	24020001 	li	v0,1
  1c:	afc20010 	sw	v0,16(s8)
  20:	10000062 	b	1ac <main+0x1ac>
  24:	00000000 	nop
  28:	8fc50010 	lw	a1,16(s8)
  2c:	3c020000 	lui	v0,0x0
  30:	24440000 	addiu	a0,v0,0
  34:	0c000000 	jal	0 <main>
  38:	00000000 	nop
  3c:	afc00014 	sw	zero,20(s8)
  40:	10000037 	b	120 <main+0x120>
  44:	00000000 	nop
  48:	afc00018 	sw	zero,24(s8)
  4c:	1000002d 	b	104 <main+0x104>
  50:	00000000 	nop
  54:	8fc30014 	lw	v1,20(s8)
  58:	8fc20010 	lw	v0,16(s8)
  5c:	00431007 	srav	v0,v1,v0
  60:	30420001 	andi	v0,v0,0x1
  64:	10400007 	beqz	v0,84 <main+0x84>
  68:	00000000 	nop
  6c:	8fc30018 	lw	v1,24(s8)
  70:	8fc20010 	lw	v0,16(s8)
  74:	00431007 	srav	v0,v1,v0
  78:	30420001 	andi	v0,v0,0x1
  7c:	1040000d 	beqz	v0,b4 <main+0xb4>
  80:	00000000 	nop
  84:	8fc30014 	lw	v1,20(s8)
  88:	8fc20010 	lw	v0,16(s8)
  8c:	00431007 	srav	v0,v1,v0
  90:	30420001 	andi	v0,v0,0x1
  94:	14400011 	bnez	v0,dc <main+0xdc>
  98:	00000000 	nop
  9c:	8fc30018 	lw	v1,24(s8)
  a0:	8fc20010 	lw	v0,16(s8)
  a4:	00431007 	srav	v0,v1,v0
  a8:	30420001 	andi	v0,v0,0x1
  ac:	1040000b 	beqz	v0,dc <main+0xdc>
  b0:	00000000 	nop
  b4:	8fc20018 	lw	v0,24(s8)
  b8:	00021a00 	sll	v1,v0,0x8
  bc:	8fc20014 	lw	v0,20(s8)
  c0:	00621021 	addu	v0,v1,v0
  c4:	27c30010 	addiu	v1,s8,16
  c8:	00621021 	addu	v0,v1,v0
  cc:	2403ffff 	li	v1,-1
  d0:	a043000c 	sb	v1,12(v0)
  d4:	10000008 	b	f8 <main+0xf8>
  d8:	00000000 	nop
  dc:	8fc20018 	lw	v0,24(s8)
  e0:	00021a00 	sll	v1,v0,0x8
  e4:	8fc20014 	lw	v0,20(s8)
  e8:	00621021 	addu	v0,v1,v0
  ec:	27c30010 	addiu	v1,s8,16
  f0:	00621021 	addu	v0,v1,v0
  f4:	a040000c 	sb	zero,12(v0)
  f8:	8fc20018 	lw	v0,24(s8)
  fc:	24420001 	addiu	v0,v0,1
 100:	afc20018 	sw	v0,24(s8)
 104:	8fc20018 	lw	v0,24(s8)
 108:	28420100 	slti	v0,v0,256
 10c:	1440ffd1 	bnez	v0,54 <main+0x54>
 110:	00000000 	nop
 114:	8fc20014 	lw	v0,20(s8)
 118:	24420001 	addiu	v0,v0,1
 11c:	afc20014 	sw	v0,20(s8)
 120:	8fc20014 	lw	v0,20(s8)
 124:	28420100 	slti	v0,v0,256
 128:	1440ffc7 	bnez	v0,48 <main+0x48>
 12c:	00000000 	nop
 130:	0c000000 	jal	0 <main>
 134:	00000000 	nop
 138:	00402825 	move	a1,v0
 13c:	3c020000 	lui	v0,0x0
 140:	24440018 	addiu	a0,v0,24
 144:	0c000000 	jal	0 <main>
 148:	00000000 	nop
 14c:	27c2001c 	addiu	v0,s8,28
 150:	3c060001 	lui	a2,0x1
 154:	00402825 	move	a1,v0
 158:	00002025 	move	a0,zero
 15c:	0c000000 	jal	0 <main>
 160:	00000000 	nop
 164:	10400007 	beqz	v0,184 <main+0x184>
 168:	00000000 	nop
 16c:	3c020000 	lui	v0,0x0
 170:	24440034 	addiu	a0,v0,52
 174:	0c000000 	jal	0 <main>
 178:	00000000 	nop
 17c:	0c000000 	jal	0 <main>
 180:	00000000 	nop
 184:	0c000000 	jal	0 <main>
 188:	00000000 	nop
 18c:	00402825 	move	a1,v0
 190:	3c020000 	lui	v0,0x0
 194:	24440058 	addiu	a0,v0,88
 198:	0c000000 	jal	0 <main>
 19c:	00000000 	nop
 1a0:	8fc20010 	lw	v0,16(s8)
 1a4:	24420001 	addiu	v0,v0,1
 1a8:	afc20010 	sw	v0,16(s8)
 1ac:	8fc20010 	lw	v0,16(s8)
 1b0:	28420006 	slti	v0,v0,6
 1b4:	1440ff9c 	bnez	v0,28 <main+0x28>
 1b8:	00000000 	nop
 1bc:	0c000000 	jal	0 <main>
 1c0:	00000000 	nop
 1c4:	00402825 	move	a1,v0
 1c8:	3c020000 	lui	v0,0x0
 1cc:	24440074 	addiu	a0,v0,116
 1d0:	0c000000 	jal	0 <main>
 1d4:	00000000 	nop
 1d8:	0c000000 	jal	0 <main>
 1dc:	00000000 	nop
 1e0:	00000000 	nop
 1e4:	34088038 	li	t0,0x8038
 1e8:	03c8e821 	addu	sp,s8,t0
 1ec:	8fbf7fec 	lw	ra,32748(sp)
 1f0:	8fbe7fe8 	lw	s8,32744(sp)
 1f4:	27bd7ff0 	addiu	sp,sp,32752
 1f8:	03e00008 	jr	ra
 1fc:	00000000 	nop

Disassembly of section .reginfo:

00000000 <.reginfo>:
   0:	e000017c 	sc	zero,380(zero)
	...

Disassembly of section .MIPS.abiflags:

00000000 <.MIPS.abiflags>:
   0:	01200000 	0x1200000
   4:	01000101 	0x1000101
	...
  10:	00000001 	movf	zero,zero,$fcc0
  14:	00000000 	nop

Disassembly of section .pdr:

00000000 <.pdr>:
   0:	00000000 	nop
   4:	c0000000 	ll	zero,0(zero)
   8:	fffffffc 	sdc3	$31,-4(ra)
	...
  14:	00010028 	0x10028
  18:	0000001e 	0x1e
  1c:	0000001f 	0x1f

Disassembly of section .rodata:

00000000 <.rodata>:
   0:	2a2a2a0a 	slti	t2,s1,10762
   4:	6d616420 	0x6d616420
   8:	20726569 	addi	s2,v1,25961
   c:	2a206425 	slti	zero,s1,25637
  10:	0a0a2a2a 	j	828a8a8 <main+0x828a8a8>
  14:	00000000 	nop
  18:	62202d20 	0x62202d20
  1c:	646c6975 	0x646c6975
  20:	4f202020 	c3	0x1202020
  24:	7461204b 	jalx	184812c <main+0x184812c>
  28:	63796320 	0x63796320
  2c:	2520656c 	addiu	zero,t1,25964
  30:	00000a64 	0xa64
  34:	2121210a 	addi	at,t1,8458
  38:	72726520 	0x72726520
  3c:	6920726f 	0x6920726f
  40:	6266206e 	0x6266206e
  44:	6972775f 	0x6972775f
  48:	73206574 	0x73206574
  4c:	61637379 	0x61637379
  50:	21206c6c 	addi	zero,t1,27756
  54:	000a2121 	0xa2121
  58:	64202d20 	0x64202d20
  5c:	6c707369 	0x6c707369
  60:	4f207961 	c3	0x1207961
  64:	7461204b 	jalx	184812c <main+0x184812c>
  68:	63796320 	0x63796320
  6c:	2520656c 	addiu	zero,t1,25964
  70:	00000a64 	0xa64
  74:	6e69460a 	0x6e69460a
  78:	20756420 	addi	s5,v1,25632
  7c:	676f7270 	0x676f7270
  80:	6d6d6172 	0x6d6d6172
  84:	75612065 	jalx	5848194 <main+0x5848194>
  88:	63796320 	0x63796320
  8c:	3d20656c 	0x3d20656c
  90:	0a642520 	j	9909480 <main+0x9909480>
  94:	Address 0x0000000000000094 is out of bounds.


Disassembly of section .ctors:

00000000 <.ctors>:
   0:	00000000 	nop

Disassembly of section .comment:

00000000 <.comment>:
   0:	43434700 	c0	0x1434700
   4:	4728203a 	c1	0x128203a
   8:	2029554e 	addi	t1,at,21838
   c:	2e322e38 	sltiu	s2,s1,11832
  10:	Address 0x0000000000000010 is out of bounds.


Disassembly of section .gnu.attributes:

00000000 <.gnu.attributes>:
   0:	00000f41 	0xf41
   4:	756e6700 	jalx	5b99c00 <main+0x5b99c00>
   8:	00070100 	sll	zero,a3,0x4
   c:	01040000 	0x1040000
